(lp0
(iGameResults
GameResult
p1
(dp2
S'_seed'
p3
I-545615104
sS'_score'
p4
I30
sS'_smoothing'
p5
I13
sS'_playername'
p6
S'std::player'
p7
sS'_time'
p8
ctime
struct_time
p9
((lp10
I2022
aI6
aI22
aI0
aI21
aI12
aI2
aI173
aI1
atp11
Rp12
sba(iGameResults
GameResult
p13
(dp14
S'_seed'
p15
I1538813286
sS'_score'
p16
I15
sS'_smoothing'
p17
I13
sS'_playername'
p18
S'std::player'
p19
sS'_time'
p20
g9
((lp21
I2022
aI6
aI22
aI0
aI25
aI47
aI2
aI173
aI1
atp22
Rp23
sba(iGameResults
GameResult
p24
(dp25
S'_seed'
p26
I812874608
sS'_score'
p27
I280
sS'_smoothing'
p28
I13
sS'_playername'
p29
S'std::player'
p30
sS'_time'
p31
g9
((lp32
I2022
aI6
aI22
aI0
aI27
aI6
aI2
aI173
aI1
atp33
Rp34
sba(iGameResults
GameResult
p35
(dp36
S'_seed'
p37
I1223689612
sS'_score'
p38
I15
sS'_smoothing'
p39
I13
sS'_playername'
p40
S'std::player'
p41
sS'_time'
p42
g9
((lp43
I2022
aI6
aI22
aI0
aI31
aI54
aI2
aI173
aI1
atp44
Rp45
sba(iGameResults
GameResult
p46
(dp47
S'_seed'
p48
I-1833476988
sS'_score'
p49
I15
sS'_smoothing'
p50
I13
sS'_playername'
p51
S'java.util.Player'
p52
sS'_time'
p53
g9
((lp54
I2022
aI6
aI22
aI0
aI32
aI28
aI2
aI173
aI1
atp55
Rp56
sba(iGameResults
GameResult
p57
(dp58
S'_seed'
p59
I-958411945
sS'_score'
p60
I15
sS'_smoothing'
p61
I13
sS'_playername'
p62
S'flyxx'
p63
sS'_time'
p64
g9
((lp65
I2022
aI6
aI22
aI11
aI43
aI50
aI2
aI173
aI1
atp66
Rp67
sba(iGameResults
GameResult
p68
(dp69
S'_seed'
p70
I-556286133
sS'_score'
p71
I15
sS'_smoothing'
p72
I13
sS'_playername'
p73
S'flyxx'
p74
sS'_time'
p75
g9
((lp76
I2022
aI6
aI22
aI15
aI54
aI7
aI2
aI173
aI1
atp77
Rp78
sba(iGameResults
GameResult
p79
(dp80
S'_seed'
p81
I-1715533044
sS'_score'
p82
I15
sS'_playername'
p83
S'std::player'
p84
sS'_smoothing'
p85
I13
sS'_time'
p86
g9
((lp87
I2022
aI6
aI23
aI0
aI33
aI16
aI3
aI174
aI1
atp88
Rp89
sba.