(dp0
S'flyxx'
p1
(iPlayer
Player
p2
(dp3
S'name'
p4
S'flyxx'
p5
sS'games'
p6
(lp7
(iGameResults
GameResult
p8
(dp9
S'_seed'
p10
I-958411945
sS'_score'
p11
I15
sS'_smoothing'
p12
I13
sS'_playername'
p13
g5
sS'_time'
p14
ctime
struct_time
p15
((lp16
I2022
aI6
aI22
aI11
aI43
aI50
aI2
aI173
aI1
atp17
Rp18
sba(iGameResults
GameResult
p19
(dp20
S'_seed'
p21
I-556286133
sS'_score'
p22
I15
sS'_playername'
p23
g5
sS'_smoothing'
p24
I13
sS'_time'
p25
g15
((lp26
I2022
aI6
aI22
aI15
aI54
aI7
aI2
aI173
aI1
atp27
Rp28
sbasS'high_score'
p29
g8
sbsS'std::player'
p30
(iPlayer
Player
p31
(dp32
S'name'
p33
S'std::player'
p34
sS'games'
p35
(lp36
(iGameResults
GameResult
p37
(dp38
S'_seed'
p39
I1538813286
sS'_score'
p40
I15
sS'_smoothing'
p41
I13
sS'_playername'
p42
g34
sS'_time'
p43
g15
((lp44
I2022
aI6
aI22
aI0
aI25
aI47
aI2
aI173
aI1
atp45
Rp46
sba(iGameResults
GameResult
p47
(dp48
S'_seed'
p49
I812874608
sS'_score'
p50
I280
sS'_smoothing'
p51
I13
sS'_playername'
p52
g34
sS'_time'
p53
g15
((lp54
I2022
aI6
aI22
aI0
aI27
aI6
aI2
aI173
aI1
atp55
Rp56
sba(iGameResults
GameResult
p57
(dp58
S'_seed'
p59
I1223689612
sS'_score'
p60
I15
sS'_smoothing'
p61
I13
sS'_playername'
p62
g34
sS'_time'
p63
g15
((lp64
I2022
aI6
aI22
aI0
aI31
aI54
aI2
aI173
aI1
atp65
Rp66
sbasS'high_score'
p67
g47
sbsS'java.util.Player'
p68
(iPlayer
Player
p69
(dp70
S'name'
p71
g68
sS'games'
p72
(lp73
(iGameResults
GameResult
p74
(dp75
S'_seed'
p76
I-1833476988
sS'_score'
p77
I15
sS'_smoothing'
p78
I13
sS'_playername'
p79
g68
sS'_time'
p80
g15
((lp81
I2022
aI6
aI22
aI0
aI32
aI28
aI2
aI173
aI1
atp82
Rp83
sbasS'high_score'
p84
g74
sbs.