(dp0
S'std::player'
p1
(iPlayer
Player
p2
(dp3
S'name'
p4
S'std::player'
p5
sS'games'
p6
(lp7
(iGameResults
GameResult
p8
(dp9
S'_seed'
p10
I1538813286
sS'_score'
p11
I15
sS'_smoothing'
p12
I13
sS'_playername'
p13
g5
sS'_time'
p14
ctime
struct_time
p15
((lp16
I2022
aI6
aI22
aI0
aI25
aI47
aI2
aI173
aI1
atp17
Rp18
sba(iGameResults
GameResult
p19
(dp20
S'_seed'
p21
I812874608
sS'_score'
p22
I280
sS'_smoothing'
p23
I13
sS'_playername'
p24
g5
sS'_time'
p25
g15
((lp26
I2022
aI6
aI22
aI0
aI27
aI6
aI2
aI173
aI1
atp27
Rp28
sba(iGameResults
GameResult
p29
(dp30
S'_seed'
p31
I1223689612
sS'_score'
p32
I15
sS'_smoothing'
p33
I13
sS'_playername'
p34
g5
sS'_time'
p35
g15
((lp36
I2022
aI6
aI22
aI0
aI31
aI54
aI2
aI173
aI1
atp37
Rp38
sbasS'high_score'
p39
g19
sbsS'java.util.Player'
p40
(iPlayer
Player
p41
(dp42
S'name'
p43
g40
sS'games'
p44
(lp45
(iGameResults
GameResult
p46
(dp47
S'_seed'
p48
I-1833476988
sS'_score'
p49
I15
sS'_playername'
p50
g40
sS'_smoothing'
p51
I13
sS'_time'
p52
g15
((lp53
I2022
aI6
aI22
aI0
aI32
aI28
aI2
aI173
aI1
atp54
Rp55
sbasS'high_score'
p56
g46
sbs.