(dp0
S'Steven'
p1
(i__main__
Player
p2
(dp3
S'name'
p4
g1
sS'scores'
p5
(lp6
I100
aI200
aI300
asS'high_score'
p7
I300
sbsS'Bob'
p8
(i__main__
Player
p9
(dp10
S'name'
p11
g8
sS'scores'
p12
(lp13
sS'high_score'
p14
I0
sbs.