(dp0
<<<<<<< Updated upstream
S'Seesen von Saasenschmirtz'
=======
S'flyxx'
>>>>>>> Stashed changes
p1
(iPlayer
Player
p2
(dp3
S'name'
p4
g1
<<<<<<< Updated upstream
sS'scores'
p5
(lp6
I15
asS'high_score'
p7
I15
=======
sS'games'
p5
(lp6
(iGameResults
GameResult
p7
(dp8
S'_seed'
p9
I1533260840
sS'_score'
p10
I15
sS'_smoothing'
p11
I13
sS'_playername'
p12
g1
sS'_time'
p13
ctime
struct_time
p14
((lp15
I2022
aI6
aI21
aI14
aI39
aI36
aI1
aI172
aI1
atp16
Rp17
sbasS'high_score'
p18
g7
sbsS'std::player'
p19
(iPlayer
Player
p20
(dp21
S'name'
p22
g19
sS'games'
p23
(lp24
(iGameResults
GameResult
p25
(dp26
S'_seed'
p27
I-891565223
sS'_score'
p28
I130
sS'_playername'
p29
g19
sS'_smoothing'
p30
I13
sS'_time'
p31
g14
((lp32
I2022
aI6
aI21
aI20
aI58
aI59
aI1
aI172
aI1
atp33
Rp34
sbasS'high_score'
p35
g25
>>>>>>> Stashed changes
sbs.