(lp0
(iGameResults
GameResult
p1
(dp2
S'_seed'
p3
I1533260840
sS'_score'
p4
I15
sS'_smoothing'
p5
I13
sS'_playername'
p6
S'flyxx'
p7
sS'_time'
p8
ctime
struct_time
p9
((lp10
I2022
aI6
aI21
aI14
aI39
aI36
aI1
aI172
aI1
atp11
Rp12
sba(iGameResults
GameResult
p13
(dp14
S'_seed'
p15
I-891565223
sS'_score'
p16
I130
sS'_playername'
p17
S'std::player'
p18
sS'_smoothing'
p19
I13
sS'_time'
p20
g9
((lp21
I2022
aI6
aI21
aI20
aI58
aI59
aI1
aI172
aI1
atp22
Rp23
sba.